; ModuleID = '32/215.c'
source_filename = "32/215.c"
target datalayout = "e-m:e-p270:32:32-p271:32:32-p272:64:64-i64:64-f80:128-n8:16:32:64-S128"
target triple = "x86_64-pc-linux-gnu"

@.str = private unnamed_addr constant [3 x i8] c"%d\00", align 1
@.str.1 = private unnamed_addr constant [3 x i8] c"%s\00", align 1
@.str.2 = private unnamed_addr constant [3 x i8] c"%c\00", align 1
@.str.3 = private unnamed_addr constant [3 x i8] c"0\0A\00", align 1

; Function Attrs: noinline nounwind uwtable
define dso_local void @main() #0 {
  %1 = alloca [200 x i8], align 16
  %2 = alloca [200 x i8], align 16
  %3 = alloca i32, align 4
  %4 = alloca i32, align 4
  %5 = alloca i32, align 4
  %6 = alloca i32, align 4
  %7 = alloca i32, align 4
  %8 = alloca i32, align 4
  %9 = alloca i32, align 4
  %10 = call i32 (i8*, ...) @__isoc99_scanf(i8* getelementptr inbounds ([3 x i8], [3 x i8]* @.str, i64 0, i64 0), i32* %8)
  store i32 1, i32* %3, align 4
  br label %11

11:                                               ; preds = %178, %0
  %12 = load i32, i32* %3, align 4
  %13 = load i32, i32* %8, align 4
  %14 = icmp sle i32 %12, %13
  br i1 %14, label %15, label %181

15:                                               ; preds = %11
  %16 = getelementptr inbounds [200 x i8], [200 x i8]* %1, i64 0, i64 0
  %17 = getelementptr inbounds [200 x i8], [200 x i8]* %2, i64 0, i64 0
  %18 = call i32 @strcmp(i8* %16, i8* %17) #3
  %19 = icmp ne i32 %18, 0
  br i1 %19, label %20, label %175

20:                                               ; preds = %15
  %21 = getelementptr inbounds [200 x i8], [200 x i8]* %1, i64 0, i64 0
  %22 = call i32 (i8*, ...) @__isoc99_scanf(i8* getelementptr inbounds ([3 x i8], [3 x i8]* @.str.1, i64 0, i64 0), i8* %21)
  %23 = getelementptr inbounds [200 x i8], [200 x i8]* %2, i64 0, i64 0
  %24 = call i32 (i8*, ...) @__isoc99_scanf(i8* getelementptr inbounds ([3 x i8], [3 x i8]* @.str.1, i64 0, i64 0), i8* %23)
  %25 = getelementptr inbounds [200 x i8], [200 x i8]* %1, i64 0, i64 0
  %26 = call i64 @strlen(i8* %25) #3
  %27 = getelementptr inbounds [200 x i8], [200 x i8]* %2, i64 0, i64 0
  %28 = call i64 @strlen(i8* %27) #3
  %29 = sub i64 %26, %28
  %30 = trunc i64 %29 to i32
  store i32 %30, i32* %9, align 4
  %31 = getelementptr inbounds [200 x i8], [200 x i8]* %2, i64 0, i64 0
  %32 = call i64 @strlen(i8* %31) #3
  %33 = sub i64 %32, 1
  %34 = trunc i64 %33 to i32
  store i32 %34, i32* %4, align 4
  br label %35

35:                                               ; preds = %139, %20
  %36 = load i32, i32* %4, align 4
  %37 = icmp sge i32 %36, 0
  br i1 %37, label %38, label %142

38:                                               ; preds = %35
  %39 = load i32, i32* %9, align 4
  %40 = load i32, i32* %4, align 4
  %41 = add nsw i32 %39, %40
  %42 = sext i32 %41 to i64
  %43 = getelementptr inbounds [200 x i8], [200 x i8]* %1, i64 0, i64 %42
  %44 = load i8, i8* %43, align 1
  %45 = sext i8 %44 to i32
  %46 = load i32, i32* %4, align 4
  %47 = sext i32 %46 to i64
  %48 = getelementptr inbounds [200 x i8], [200 x i8]* %2, i64 0, i64 %47
  %49 = load i8, i8* %48, align 1
  %50 = sext i8 %49 to i32
  %51 = icmp slt i32 %45, %50
  br i1 %51, label %52, label %117

52:                                               ; preds = %38
  store i32 1, i32* %5, align 4
  br label %53

53:                                               ; preds = %66, %52
  %54 = load i32, i32* %9, align 4
  %55 = load i32, i32* %4, align 4
  %56 = add nsw i32 %54, %55
  %57 = load i32, i32* %5, align 4
  %58 = sub nsw i32 %56, %57
  %59 = sext i32 %58 to i64
  %60 = getelementptr inbounds [200 x i8], [200 x i8]* %1, i64 0, i64 %59
  %61 = load i8, i8* %60, align 1
  %62 = sext i8 %61 to i32
  %63 = icmp sgt i32 %62, 48
  br i1 %63, label %64, label %65

64:                                               ; preds = %53
  br label %69

65:                                               ; preds = %53
  br label %66

66:                                               ; preds = %65
  %67 = load i32, i32* %5, align 4
  %68 = add nsw i32 %67, 1
  store i32 %68, i32* %5, align 4
  br label %53

69:                                               ; preds = %64
  %70 = load i32, i32* %9, align 4
  %71 = load i32, i32* %4, align 4
  %72 = add nsw i32 %70, %71
  %73 = load i32, i32* %5, align 4
  %74 = sub nsw i32 %72, %73
  %75 = sext i32 %74 to i64
  %76 = getelementptr inbounds [200 x i8], [200 x i8]* %1, i64 0, i64 %75
  %77 = load i8, i8* %76, align 1
  %78 = sext i8 %77 to i32
  %79 = sub nsw i32 %78, 1
  %80 = trunc i32 %79 to i8
  store i8 %80, i8* %76, align 1
  store i32 1, i32* %6, align 4
  br label %81

81:                                               ; preds = %93, %69
  %82 = load i32, i32* %6, align 4
  %83 = load i32, i32* %5, align 4
  %84 = icmp slt i32 %82, %83
  br i1 %84, label %85, label %96

85:                                               ; preds = %81
  %86 = load i32, i32* %9, align 4
  %87 = load i32, i32* %4, align 4
  %88 = add nsw i32 %86, %87
  %89 = load i32, i32* %6, align 4
  %90 = sub nsw i32 %88, %89
  %91 = sext i32 %90 to i64
  %92 = getelementptr inbounds [200 x i8], [200 x i8]* %1, i64 0, i64 %91
  store i8 57, i8* %92, align 1
  br label %93

93:                                               ; preds = %85
  %94 = load i32, i32* %6, align 4
  %95 = add nsw i32 %94, 1
  store i32 %95, i32* %6, align 4
  br label %81

96:                                               ; preds = %81
  %97 = load i32, i32* %9, align 4
  %98 = load i32, i32* %4, align 4
  %99 = add nsw i32 %97, %98
  %100 = sext i32 %99 to i64
  %101 = getelementptr inbounds [200 x i8], [200 x i8]* %1, i64 0, i64 %100
  %102 = load i8, i8* %101, align 1
  %103 = sext i8 %102 to i32
  %104 = add nsw i32 58, %103
  %105 = load i32, i32* %4, align 4
  %106 = sext i32 %105 to i64
  %107 = getelementptr inbounds [200 x i8], [200 x i8]* %2, i64 0, i64 %106
  %108 = load i8, i8* %107, align 1
  %109 = sext i8 %108 to i32
  %110 = sub nsw i32 %104, %109
  %111 = trunc i32 %110 to i8
  %112 = load i32, i32* %9, align 4
  %113 = load i32, i32* %4, align 4
  %114 = add nsw i32 %112, %113
  %115 = sext i32 %114 to i64
  %116 = getelementptr inbounds [200 x i8], [200 x i8]* %1, i64 0, i64 %115
  store i8 %111, i8* %116, align 1
  br label %138

117:                                              ; preds = %38
  %118 = load i32, i32* %9, align 4
  %119 = load i32, i32* %4, align 4
  %120 = add nsw i32 %118, %119
  %121 = sext i32 %120 to i64
  %122 = getelementptr inbounds [200 x i8], [200 x i8]* %1, i64 0, i64 %121
  %123 = load i8, i8* %122, align 1
  %124 = sext i8 %123 to i32
  %125 = load i32, i32* %4, align 4
  %126 = sext i32 %125 to i64
  %127 = getelementptr inbounds [200 x i8], [200 x i8]* %2, i64 0, i64 %126
  %128 = load i8, i8* %127, align 1
  %129 = sext i8 %128 to i32
  %130 = sub nsw i32 %124, %129
  %131 = add nsw i32 %130, 48
  %132 = trunc i32 %131 to i8
  %133 = load i32, i32* %9, align 4
  %134 = load i32, i32* %4, align 4
  %135 = add nsw i32 %133, %134
  %136 = sext i32 %135 to i64
  %137 = getelementptr inbounds [200 x i8], [200 x i8]* %1, i64 0, i64 %136
  store i8 %132, i8* %137, align 1
  br label %138

138:                                              ; preds = %117, %96
  br label %139

139:                                              ; preds = %138
  %140 = load i32, i32* %4, align 4
  %141 = add nsw i32 %140, -1
  store i32 %141, i32* %4, align 4
  br label %35

142:                                              ; preds = %35
  store i32 0, i32* %4, align 4
  br label %143

143:                                              ; preds = %152, %142
  %144 = load i32, i32* %4, align 4
  %145 = sext i32 %144 to i64
  %146 = getelementptr inbounds [200 x i8], [200 x i8]* %1, i64 0, i64 %145
  %147 = load i8, i8* %146, align 1
  %148 = sext i8 %147 to i32
  %149 = icmp ne i32 %148, 48
  br i1 %149, label %150, label %151

150:                                              ; preds = %143
  br label %155

151:                                              ; preds = %143
  br label %152

152:                                              ; preds = %151
  %153 = load i32, i32* %4, align 4
  %154 = add nsw i32 %153, 1
  store i32 %154, i32* %4, align 4
  br label %143

155:                                              ; preds = %150
  %156 = load i32, i32* %4, align 4
  store i32 %156, i32* %5, align 4
  br label %157

157:                                              ; preds = %170, %155
  %158 = load i32, i32* %5, align 4
  %159 = sext i32 %158 to i64
  %160 = getelementptr inbounds [200 x i8], [200 x i8]* %1, i64 0, i64 0
  %161 = call i64 @strlen(i8* %160) #3
  %162 = icmp ult i64 %159, %161
  br i1 %162, label %163, label %173

163:                                              ; preds = %157
  %164 = load i32, i32* %5, align 4
  %165 = sext i32 %164 to i64
  %166 = getelementptr inbounds [200 x i8], [200 x i8]* %1, i64 0, i64 %165
  %167 = load i8, i8* %166, align 1
  %168 = sext i8 %167 to i32
  %169 = call i32 (i8*, ...) @printf(i8* getelementptr inbounds ([3 x i8], [3 x i8]* @.str.2, i64 0, i64 0), i32 %168)
  br label %170

170:                                              ; preds = %163
  %171 = load i32, i32* %5, align 4
  %172 = add nsw i32 %171, 1
  store i32 %172, i32* %5, align 4
  br label %157

173:                                              ; preds = %157
  %174 = call i32 @putchar(i32 10)
  br label %177

175:                                              ; preds = %15
  %176 = call i32 (i8*, ...) @printf(i8* getelementptr inbounds ([3 x i8], [3 x i8]* @.str.3, i64 0, i64 0))
  br label %177

177:                                              ; preds = %175, %173
  br label %178

178:                                              ; preds = %177
  %179 = load i32, i32* %3, align 4
  %180 = add nsw i32 %179, 1
  store i32 %180, i32* %3, align 4
  br label %11

181:                                              ; preds = %11
  ret void
}

declare dso_local i32 @__isoc99_scanf(i8*, ...) #1

; Function Attrs: nounwind readonly
declare dso_local i32 @strcmp(i8*, i8*) #2

; Function Attrs: nounwind readonly
declare dso_local i64 @strlen(i8*) #2

declare dso_local i32 @printf(i8*, ...) #1

declare dso_local i32 @putchar(i32) #1


!llvm.module.flags = !{!0}
!llvm.ident = !{!1}

!0 = !{i32 1, !"wchar_size", i32 4}
!1 = !{!"clang version 10.0.0-4ubuntu1 "}
